target datalayout = "e-m:e-p270:32:32-p271:32:32-p272:64:64-i64:64-i128:128-f80:128-n8:16:32:64-S128"
target triple = "x86_64-pc-linux-gnu"

%"class.llvm::SmallVectorBase" = type { ptr, i32, i32 }
%"struct.llvm::Align" = type { i8 }
%"class.std::__cxx11::basic_string" = type { %"struct.std::__cxx11::basic_string<char>::_Alloc_hider", i64, %union.anon.99 }
%"struct.std::__cxx11::basic_string<char>::_Alloc_hider" = type { ptr }
%union.anon.99 = type { i64, [8 x i8] }
%"struct.llvm::MachinePointerInfo" = type <{ %"class.llvm::PointerUnion.301", i64, i32, i8, [3 x i8] }>
%"class.llvm::PointerUnion.301" = type { %"class.llvm::pointer_union_detail::PointerUnionMembers.302" }
%"class.llvm::pointer_union_detail::PointerUnionMembers.302" = type { %"class.llvm::pointer_union_detail::PointerUnionMembers.303" }
%"class.llvm::pointer_union_detail::PointerUnionMembers.303" = type { %"class.llvm::pointer_union_detail::PointerUnionMembers.304" }
%"class.llvm::pointer_union_detail::PointerUnionMembers.304" = type { %"class.llvm::PointerIntPair.305" }
%"class.llvm::PointerIntPair.305" = type { %"struct.llvm::detail::PunnedPointer.89" }
%"struct.llvm::detail::PunnedPointer.89" = type { [8 x i8] }
%"class.llvm::DataLayout" = type { i8, i32, i32, i32, %"struct.llvm::MaybeAlign", %"struct.llvm::MaybeAlign", i32, i32, %"class.llvm::SmallVector.312", %"class.llvm::SmallVector.317", %"class.llvm::SmallVector.322", %"class.llvm::SmallVector.324", %"class.llvm::SmallVector.326", %"class.std::__cxx11::basic_string", %"struct.llvm::Align", %"struct.llvm::Align", ptr, %"class.llvm::SmallVector.331" }
%"struct.llvm::MaybeAlign" = type { %"class.std::optional.306" }
%"class.std::optional.306" = type { %"struct.std::_Optional_base.307" }
%"struct.std::_Optional_base.307" = type { %"struct.std::_Optional_payload.309" }
%"struct.std::_Optional_payload.309" = type { %"struct.std::_Optional_payload_base.310" }
%"struct.std::_Optional_payload_base.310" = type { %"union.std::_Optional_payload_base<llvm::Align>::_Storage", i8 }
%"union.std::_Optional_payload_base<llvm::Align>::_Storage" = type { %"struct.std::_Optional_payload_base<llvm::Align>::_Empty_byte" }
%"struct.std::_Optional_payload_base<llvm::Align>::_Empty_byte" = type { i8 }
%"class.llvm::SmallVector.312" = type { %"class.llvm::SmallVectorImpl.313", %"struct.llvm::SmallVectorStorage.316" }
%"class.llvm::SmallVectorImpl.313" = type { %"class.llvm::SmallVectorTemplateBase.314" }
%"class.llvm::SmallVectorTemplateBase.314" = type { %"class.llvm::SmallVectorTemplateCommon.315" }
%"class.llvm::SmallVectorTemplateCommon.315" = type { %"class.llvm::SmallVectorBase.105" }
%"class.llvm::SmallVectorBase.105" = type { ptr, i64, i64 }
%"struct.llvm::SmallVectorStorage.316" = type { [8 x i8] }
%"class.llvm::SmallVector.317" = type { %"class.llvm::SmallVectorImpl.318", %"struct.llvm::SmallVectorStorage.321" }
%"class.llvm::SmallVectorImpl.318" = type { %"class.llvm::SmallVectorTemplateBase.319" }
%"class.llvm::SmallVectorTemplateBase.319" = type { %"class.llvm::SmallVectorTemplateCommon.320" }
%"class.llvm::SmallVectorTemplateCommon.320" = type { %"class.llvm::SmallVectorBase" }
%"struct.llvm::SmallVectorStorage.321" = type { [48 x i8] }
%"class.llvm::SmallVector.322" = type { %"class.llvm::SmallVectorImpl.318", %"struct.llvm::SmallVectorStorage.323" }
%"struct.llvm::SmallVectorStorage.323" = type { [32 x i8] }
%"class.llvm::SmallVector.324" = type { %"class.llvm::SmallVectorImpl.318", %"struct.llvm::SmallVectorStorage.325" }
%"struct.llvm::SmallVectorStorage.325" = type { [80 x i8] }
%"class.llvm::SmallVector.326" = type { %"class.llvm::SmallVectorImpl.327", %"struct.llvm::SmallVectorStorage.330" }
%"class.llvm::SmallVectorImpl.327" = type { %"class.llvm::SmallVectorTemplateBase.328" }
%"class.llvm::SmallVectorTemplateBase.328" = type { %"class.llvm::SmallVectorTemplateCommon.329" }
%"class.llvm::SmallVectorTemplateCommon.329" = type { %"class.llvm::SmallVectorBase" }
%"struct.llvm::SmallVectorStorage.330" = type { [128 x i8] }
%"class.llvm::SmallVector.331" = type { %"class.llvm::SmallVectorImpl.332", %"struct.llvm::SmallVectorStorage.335" }
%"class.llvm::SmallVectorImpl.332" = type { %"class.llvm::SmallVectorTemplateBase.333" }
%"class.llvm::SmallVectorTemplateBase.333" = type { %"class.llvm::SmallVectorTemplateCommon.334" }
%"class.llvm::SmallVectorTemplateCommon.334" = type { %"class.llvm::SmallVectorBase" }
%"struct.llvm::SmallVectorStorage.335" = type { [32 x i8] }

; Function Attrs: mustprogress nounwind uwtable
define linkonce_odr hidden noundef ptr @_ZN4llvm20pointer_union_detail22PointerUnionUIntTraitsIJPKNS_5ValueEPKNS_17PseudoSourceValueEEE16getAsVoidPointerEPv(ptr noundef %0) #1 comdat align 2 {
  %2 = alloca ptr, align 8
  store ptr %0, ptr %2, align 8
  %3 = load ptr, ptr %2, align 8
  ret ptr %3
}

; Function Attrs: mustprogress nounwind uwtable
define linkonce_odr hidden noundef i64 @_ZN4llvm18PointerIntPairInfoIPvLj1ENS_20pointer_union_detail22PointerUnionUIntTraitsIJPKNS_5ValueEPKNS_17PseudoSourceValueEEEEE9updateIntEll(i64 noundef %0, i64 noundef %1) #1 comdat align 2 {
  %3 = alloca i64, align 8
  %4 = alloca i64, align 8
  %5 = alloca i64, align 8
  store i64 %0, ptr %3, align 8
  store i64 %1, ptr %4, align 8
  %6 = load i64, ptr %4, align 8
  store i64 %6, ptr %5, align 8
  %7 = load i64, ptr %3, align 8
  %8 = and i64 %7, -5
  %9 = load i64, ptr %5, align 8
  %10 = shl i64 %9, 2
  %11 = or i64 %8, %10
  ret i64 %11
}

; Function Attrs: mustprogress nounwind uwtable
define linkonce_odr hidden noundef i64 @_ZN4llvm18PointerIntPairInfoIPvLj1ENS_20pointer_union_detail22PointerUnionUIntTraitsIJPKNS_5ValueEPKNS_17PseudoSourceValueEEEEE13updatePointerElS1_(i64 noundef %0, ptr noundef %1) #1 comdat align 2 {
  %3 = alloca i64, align 8
  %4 = alloca ptr, align 8
  %5 = alloca i64, align 8
  store i64 %0, ptr %3, align 8
  store ptr %1, ptr %4, align 8
  %6 = load ptr, ptr %4, align 8
  %7 = call noundef ptr @_ZN4llvm20pointer_union_detail22PointerUnionUIntTraitsIJPKNS_5ValueEPKNS_17PseudoSourceValueEEE16getAsVoidPointerEPv(ptr noundef %6)
  %8 = ptrtoint ptr %7 to i64
  store i64 %8, ptr %5, align 8
  %9 = load i64, ptr %5, align 8
  %10 = load i64, ptr %3, align 8
  %11 = and i64 %10, 7
  %12 = or i64 %9, %11
  ret i64 %12
}

; Function Attrs: mustprogress nounwind uwtable
define linkonce_odr hidden noundef nonnull align 8 dereferenceable(8) ptr @_ZN4llvm6detail13PunnedPointerIPvEaSEl(ptr noundef nonnull align 8 dereferenceable(8) %0, i64 noundef %1) #1 comdat align 2 {
  %3 = alloca ptr, align 8
  %4 = alloca i64, align 8
  store ptr %0, ptr %3, align 8
  store i64 %1, ptr %4, align 8
  %5 = load ptr, ptr %3, align 8
  %6 = getelementptr inbounds nuw %"struct.llvm::detail::PunnedPointer.89", ptr %5, i32 0, i32 0
  %7 = getelementptr inbounds [8 x i8], ptr %6, i64 0, i64 0
  call void @llvm.memcpy.p0.p0.i64(ptr align 8 %7, ptr align 8 %4, i64 8, i1 false)
  ret ptr %5
}

; Function Attrs: mustprogress nounwind uwtable
define linkonce_odr hidden void @_ZN4llvm20pointer_union_detail19PointerUnionMembersINS_12PointerUnionIJPKNS_5ValueEPKNS_17PseudoSourceValueEEEENS_14PointerIntPairIPvLj1EiNS0_22PointerUnionUIntTraitsIJS5_S8_EEENS_18PointerIntPairInfoISB_Lj1ESD_EEEELi2EJEEC2ESG_(ptr noundef nonnull align 8 dereferenceable(8) %0, i64 %1) unnamed_addr #1 comdat align 2 {
  %3 = alloca %"class.llvm::PointerIntPair.305", align 8
  %4 = alloca ptr, align 8
  %5 = getelementptr inbounds nuw %"class.llvm::PointerIntPair.305", ptr %3, i32 0, i32 0
  %6 = getelementptr inbounds nuw %"struct.llvm::detail::PunnedPointer.89", ptr %5, i32 0, i32 0
  store i64 %1, ptr %6, align 8
  store ptr %0, ptr %4, align 8
  %7 = load ptr, ptr %4, align 8
  %8 = getelementptr inbounds nuw %"class.llvm::pointer_union_detail::PointerUnionMembers.304", ptr %7, i32 0, i32 0
  call void @llvm.memcpy.p0.p0.i64(ptr align 8 %8, ptr align 8 %3, i64 8, i1 false)
  ret void
}

; Function Attrs: mustprogress nounwind uwtable
define linkonce_odr hidden void @_ZNR4llvm14PointerIntPairIPvLj1EiNS_20pointer_union_detail22PointerUnionUIntTraitsIJPKNS_5ValueEPKNS_17PseudoSourceValueEEEENS_18PointerIntPairInfoIS1_Lj1ESA_EEE16setPointerAndIntES1_i(ptr noundef nonnull align 8 dereferenceable(8) %0, ptr noundef %1, i32 noundef %2) #1 comdat align 2 {
  %4 = alloca ptr, align 8
  %5 = alloca ptr, align 8
  %6 = alloca i32, align 4
  store ptr %0, ptr %4, align 8
  store ptr %1, ptr %5, align 8
  store i32 %2, ptr %6, align 4
  %7 = load ptr, ptr %4, align 8
  %8 = load ptr, ptr %5, align 8
  %9 = call noundef i64 @_ZN4llvm18PointerIntPairInfoIPvLj1ENS_20pointer_union_detail22PointerUnionUIntTraitsIJPKNS_5ValueEPKNS_17PseudoSourceValueEEEEE13updatePointerElS1_(i64 noundef 0, ptr noundef %8)
  %10 = load i32, ptr %6, align 4
  %11 = sext i32 %10 to i64
  %12 = call noundef i64 @_ZN4llvm18PointerIntPairInfoIPvLj1ENS_20pointer_union_detail22PointerUnionUIntTraitsIJPKNS_5ValueEPKNS_17PseudoSourceValueEEEEE9updateIntEll(i64 noundef %9, i64 noundef %11)
  %13 = getelementptr inbounds nuw %"class.llvm::PointerIntPair.305", ptr %7, i32 0, i32 0
  %14 = call noundef nonnull align 8 dereferenceable(8) ptr @_ZN4llvm6detail13PunnedPointerIPvEaSEl(ptr noundef nonnull align 8 dereferenceable(8) %13, i64 noundef %12)
  ret void
}

; Function Attrs: mustprogress nounwind uwtable
define linkonce_odr hidden void @_ZN4llvm6detail13PunnedPointerIPvEC2El(ptr noundef nonnull align 8 dereferenceable(8) %0, i64 noundef %1) unnamed_addr #1 comdat align 2 {
  %3 = alloca ptr, align 8
  %4 = alloca i64, align 8
  store ptr %0, ptr %3, align 8
  store i64 %1, ptr %4, align 8
  %5 = load ptr, ptr %3, align 8
  %6 = load i64, ptr %4, align 8
  %7 = call noundef nonnull align 8 dereferenceable(8) ptr @_ZN4llvm6detail13PunnedPointerIPvEaSEl(ptr noundef nonnull align 8 dereferenceable(8) %5, i64 noundef %6)
  ret void
}

; Function Attrs: mustprogress nounwind uwtable
define linkonce_odr hidden noundef ptr @_ZN4llvm21PointerLikeTypeTraitsIPNS_5ValueEE16getAsVoidPointerES2_(ptr noundef %0) #1 comdat align 2 {
  %2 = alloca ptr, align 8
  store ptr %0, ptr %2, align 8
  %3 = load ptr, ptr %2, align 8
  ret ptr %3
}

; Function Attrs: mustprogress nounwind uwtable
define linkonce_odr hidden void @_ZN4llvm20pointer_union_detail19PointerUnionMembersINS_12PointerUnionIJPKNS_5ValueEPKNS_17PseudoSourceValueEEEENS_14PointerIntPairIPvLj1EiNS0_22PointerUnionUIntTraitsIJS5_S8_EEENS_18PointerIntPairInfoISB_Lj1ESD_EEEELi1EJS8_EECI2NS1_IS9_SG_Li2EJEEEESG_(ptr noundef nonnull align 8 dereferenceable(8) %0, i64 %1) unnamed_addr #1 comdat align 2 {
  %3 = alloca %"class.llvm::PointerIntPair.305", align 8
  %4 = alloca ptr, align 8
  %5 = getelementptr inbounds nuw %"class.llvm::PointerIntPair.305", ptr %3, i32 0, i32 0
  %6 = getelementptr inbounds nuw %"struct.llvm::detail::PunnedPointer.89", ptr %5, i32 0, i32 0
  store i64 %1, ptr %6, align 8
  store ptr %0, ptr %4, align 8
  %7 = load ptr, ptr %4, align 8
  %8 = getelementptr inbounds nuw %"class.llvm::PointerIntPair.305", ptr %3, i32 0, i32 0
  %9 = getelementptr inbounds nuw %"struct.llvm::detail::PunnedPointer.89", ptr %8, i32 0, i32 0
  %10 = load i64, ptr %9, align 8
  call void @_ZN4llvm20pointer_union_detail19PointerUnionMembersINS_12PointerUnionIJPKNS_5ValueEPKNS_17PseudoSourceValueEEEENS_14PointerIntPairIPvLj1EiNS0_22PointerUnionUIntTraitsIJS5_S8_EEENS_18PointerIntPairInfoISB_Lj1ESD_EEEELi2EJEEC2ESG_(ptr noundef nonnull align 8 dereferenceable(8) %7, i64 %10)
  ret void
}

; Function Attrs: mustprogress nounwind uwtable
define linkonce_odr hidden void @_ZN4llvm14PointerIntPairIPvLj1EiNS_20pointer_union_detail22PointerUnionUIntTraitsIJPKNS_5ValueEPKNS_17PseudoSourceValueEEEENS_18PointerIntPairInfoIS1_Lj1ESA_EEEC2ES1_i(ptr noundef nonnull align 8 dereferenceable(8) %0, ptr noundef %1, i32 noundef %2) unnamed_addr #1 comdat align 2 {
  %4 = alloca ptr, align 8
  %5 = alloca ptr, align 8
  %6 = alloca i32, align 4
  store ptr %0, ptr %4, align 8
  store ptr %1, ptr %5, align 8
  store i32 %2, ptr %6, align 4
  %7 = load ptr, ptr %4, align 8
  %8 = getelementptr inbounds nuw %"class.llvm::PointerIntPair.305", ptr %7, i32 0, i32 0
  call void @_ZN4llvm6detail13PunnedPointerIPvEC2El(ptr noundef nonnull align 8 dereferenceable(8) %8, i64 noundef 0)
  %9 = load ptr, ptr %5, align 8
  %10 = load i32, ptr %6, align 4
  call void @_ZNR4llvm14PointerIntPairIPvLj1EiNS_20pointer_union_detail22PointerUnionUIntTraitsIJPKNS_5ValueEPKNS_17PseudoSourceValueEEEENS_18PointerIntPairInfoIS1_Lj1ESA_EEE16setPointerAndIntES1_i(ptr noundef nonnull align 8 dereferenceable(8) %7, ptr noundef %9, i32 noundef %10)
  ret void
}

; Function Attrs: mustprogress nounwind uwtable
define linkonce_odr hidden noundef ptr @_ZN4llvm21PointerLikeTypeTraitsIPKNS_5ValueEE16getAsVoidPointerES3_(ptr noundef %0) #1 comdat align 2 {
  %2 = alloca ptr, align 8
  store ptr %0, ptr %2, align 8
  %3 = load ptr, ptr %2, align 8
  %4 = call noundef ptr @_ZN4llvm21PointerLikeTypeTraitsIPNS_5ValueEE16getAsVoidPointerES2_(ptr noundef %3)
  ret ptr %4
}

; Function Attrs: mustprogress nounwind uwtable
define linkonce_odr hidden void @_ZN4llvm20pointer_union_detail19PointerUnionMembersINS_12PointerUnionIJPKNS_5ValueEPKNS_17PseudoSourceValueEEEENS_14PointerIntPairIPvLj1EiNS0_22PointerUnionUIntTraitsIJS5_S8_EEENS_18PointerIntPairInfoISB_Lj1ESD_EEEELi0EJS5_S8_EEC2ES5_(ptr noundef nonnull align 8 dereferenceable(8) %0, ptr noundef %1) unnamed_addr #1 comdat align 2 {
  %3 = alloca ptr, align 8
  %4 = alloca ptr, align 8
  %5 = alloca %"class.llvm::PointerIntPair.305", align 8
  store ptr %0, ptr %3, align 8
  store ptr %1, ptr %4, align 8
  %6 = load ptr, ptr %3, align 8
  %7 = load ptr, ptr %4, align 8
  %8 = call noundef ptr @_ZN4llvm21PointerLikeTypeTraitsIPKNS_5ValueEE16getAsVoidPointerES3_(ptr noundef %7)
  call void @_ZN4llvm14PointerIntPairIPvLj1EiNS_20pointer_union_detail22PointerUnionUIntTraitsIJPKNS_5ValueEPKNS_17PseudoSourceValueEEEENS_18PointerIntPairInfoIS1_Lj1ESA_EEEC2ES1_i(ptr noundef nonnull align 8 dereferenceable(8) %5, ptr noundef %8, i32 noundef 0)
  %9 = getelementptr inbounds nuw %"class.llvm::PointerIntPair.305", ptr %5, i32 0, i32 0
  %10 = getelementptr inbounds nuw %"struct.llvm::detail::PunnedPointer.89", ptr %9, i32 0, i32 0
  %11 = load i64, ptr %10, align 8
  call void @_ZN4llvm20pointer_union_detail19PointerUnionMembersINS_12PointerUnionIJPKNS_5ValueEPKNS_17PseudoSourceValueEEEENS_14PointerIntPairIPvLj1EiNS0_22PointerUnionUIntTraitsIJS5_S8_EEENS_18PointerIntPairInfoISB_Lj1ESD_EEEELi1EJS8_EECI2NS1_IS9_SG_Li2EJEEEESG_(ptr noundef nonnull align 8 dereferenceable(8) %6, i64 %11)
  ret void
}

; Function Attrs: mustprogress nounwind uwtable
define linkonce_odr hidden void @_ZN4llvm12PointerUnionIJPKNS_5ValueEPKNS_17PseudoSourceValueEEECI2NS_20pointer_union_detail19PointerUnionMembersIS7_NS_14PointerIntPairIPvLj1EiNS8_22PointerUnionUIntTraitsIJS3_S6_EEENS_18PointerIntPairInfoISB_Lj1ESD_EEEELi0EJS3_S6_EEEES3_(ptr noundef nonnull align 8 dereferenceable(8) %0, ptr noundef %1) unnamed_addr #1 comdat align 2 {
  %3 = alloca ptr, align 8
  %4 = alloca ptr, align 8
  store ptr %0, ptr %3, align 8
  store ptr %1, ptr %4, align 8
  %5 = load ptr, ptr %3, align 8
  %6 = load ptr, ptr %4, align 8
  call void @_ZN4llvm20pointer_union_detail19PointerUnionMembersINS_12PointerUnionIJPKNS_5ValueEPKNS_17PseudoSourceValueEEEENS_14PointerIntPairIPvLj1EiNS0_22PointerUnionUIntTraitsIJS5_S8_EEENS_18PointerIntPairInfoISB_Lj1ESD_EEEELi0EJS5_S8_EEC2ES5_(ptr noundef nonnull align 8 dereferenceable(8) %5, ptr noundef %6)
  ret void
}

; Function Attrs: mustprogress nounwind uwtable
define linkonce_odr hidden void @_ZN4llvm18MachinePointerInfoC2Ejl(ptr noundef nonnull align 8 dereferenceable(21) %0, i32 noundef %1, i64 noundef %2) unnamed_addr #1 comdat align 2 {
  %4 = alloca ptr, align 8
  %5 = alloca i32, align 4
  %6 = alloca i64, align 8
  store ptr %0, ptr %4, align 8
  store i32 %1, ptr %5, align 4
  store i64 %2, ptr %6, align 8
  %7 = load ptr, ptr %4, align 8
  %8 = getelementptr inbounds nuw %"struct.llvm::MachinePointerInfo", ptr %7, i32 0, i32 0
  call void @_ZN4llvm12PointerUnionIJPKNS_5ValueEPKNS_17PseudoSourceValueEEECI2NS_20pointer_union_detail19PointerUnionMembersIS7_NS_14PointerIntPairIPvLj1EiNS8_22PointerUnionUIntTraitsIJS3_S6_EEENS_18PointerIntPairInfoISB_Lj1ESD_EEEELi0EJS3_S6_EEEES3_(ptr noundef nonnull align 8 dereferenceable(8) %8, ptr noundef null)
  %9 = getelementptr inbounds nuw %"struct.llvm::MachinePointerInfo", ptr %7, i32 0, i32 1
  %10 = load i64, ptr %6, align 8
  store i64 %10, ptr %9, align 8
  %11 = getelementptr inbounds nuw %"struct.llvm::MachinePointerInfo", ptr %7, i32 0, i32 2
  %12 = load i32, ptr %5, align 4
  store i32 %12, ptr %11, align 8
  %13 = getelementptr inbounds nuw %"struct.llvm::MachinePointerInfo", ptr %7, i32 0, i32 3
  store i8 0, ptr %13, align 4
  ret void
}

; Function Attrs: mustprogress nounwind uwtable
define linkonce_odr hidden noundef i32 @_ZNK4llvm10DataLayout18getAllocaAddrSpaceEv(ptr noundef nonnull align 8 dereferenceable(512) %0) #1 comdat align 2 {
  %2 = alloca ptr, align 8
  store ptr %0, ptr %2, align 8
  %3 = load ptr, ptr %2, align 8
  %4 = getelementptr inbounds nuw %"class.llvm::DataLayout", ptr %3, i32 0, i32 1
  %5 = load i32, ptr %4, align 4
  ret i32 %5
}

; Function Attrs: mustprogress nounwind uwtable
define dso_local void @_ZN4llvm18MachinePointerInfo15getUnknownStackERNS_15MachineFunctionE(ptr dead_on_unwind noalias writable sret(%"struct.llvm::MachinePointerInfo") align 8 %0, ptr noundef nonnull align 8 dereferenceable(1041) %1) #1 align 2 {
  %3 = alloca ptr, align 8
  store ptr %1, ptr %3, align 8
  %4 = load ptr, ptr %3, align 8
  %5 = call noundef nonnull align 8 dereferenceable(512) ptr @_ZNK4llvm15MachineFunction13getDataLayoutEv(ptr noundef nonnull align 8 dereferenceable(1041) %4)
  %6 = call noundef i32 @_ZNK4llvm10DataLayout18getAllocaAddrSpaceEv(ptr noundef nonnull align 8 dereferenceable(512) %5)
  call void @_ZN4llvm18MachinePointerInfoC2Ejl(ptr noundef nonnull align 8 dereferenceable(21) %0, i32 noundef %6, i64 noundef 0)
  ret void
}