; Function Attrs: mustprogress nounwind uwtable
define dso_local void @_ZN4llvm18MachinePointerInfo15getUnknownStackERNS_15MachineFunctionE(ptr dead_on_unwind noalias writable writeonly sret(%"struct.llvm::MachinePointerInfo") align 8 captures(none) initializes((0, 21)) %0, ptr noundef nonnull align 8 dereferenceable(1041) %1) local_unnamed_addr #0 align 2 {
  %3 = tail call noundef nonnull align 8 dereferenceable(512) ptr @_ZNK4llvm15MachineFunction13getDataLayoutEv(ptr noundef nonnull align 8 dereferenceable(1041) %1) #21
  %4 = getelementptr inbounds nuw i8, ptr %3, i64 4
  %5 = load i32, ptr %4, align 4
  %6 = getelementptr inbounds nuw i8, ptr %0, i64 16
  tail call void @llvm.memset.p0.i64(ptr noundef nonnull align 8 dereferenceable(16) %0, i8 0, i64 16, i1 false)
  store i32 %5, ptr %6, align 8
  %7 = getelementptr inbounds nuw i8, ptr %0, i64 20
  store i8 0, ptr %7, align 4
  ret void
}